; Function Attrs: nounwind sspstrong uwtable
define internal noundef i64 @p_sys_setresgid(i64 %0, i64 noundef %1, i64 noundef %2, i64 noundef %3) #1 {
  %5 = alloca i64, align 8
  %6 = alloca i64, align 8
  %7 = alloca i64, align 8
  %.b.i = load i1, ptr @under_gid_switch, align 4
  br i1 %.b.i, label %8, label %check_gid_switch.exit

8:                                                ; preds = %4
  %9 = load i64, ptr @rb_eRuntimeError, align 8, !tbaa !43
  tail call void (i64, ptr, ...) @rb_raise(i64 noundef %9, ptr noundef nonnull @.str.229) #29
  unreachable

check_gid_switch.exit:                            ; preds = %4
  call void @llvm.lifetime.start.p0(i64 8, ptr nonnull %7) #27
  store i64 0, ptr %7, align 8, !tbaa !43
  %10 = call fastcc i32 @obj2gid(i64 noundef %1, ptr noundef %7)
  %11 = load i64, ptr %7, align 8, !tbaa !43
  %.not.i = icmp eq i64 %11, 0
  br i1 %.not.i, label %obj2gid0.exit, label %12

12:                                               ; preds = %check_gid_switch.exit
  %13 = tail call i64 @rb_str_resize(i64 noundef %11, i64 noundef 0) #27
  br label %obj2gid0.exit

obj2gid0.exit:                                    ; preds = %check_gid_switch.exit, %12
  call void @llvm.lifetime.end.p0(i64 8, ptr nonnull %7) #27
  call void @llvm.lifetime.start.p0(i64 8, ptr nonnull %6) #27
  store i64 0, ptr %6, align 8, !tbaa !43
  %14 = call fastcc i32 @obj2gid(i64 noundef %2, ptr noundef %6)
  %15 = load i64, ptr %6, align 8, !tbaa !43
  %.not.i7 = icmp eq i64 %15, 0
  br i1 %.not.i7, label %obj2gid0.exit8, label %16

16:                                               ; preds = %obj2gid0.exit
  %17 = tail call i64 @rb_str_resize(i64 noundef %15, i64 noundef 0) #27
  br label %obj2gid0.exit8

obj2gid0.exit8:                                   ; preds = %obj2gid0.exit, %16
  call void @llvm.lifetime.end.p0(i64 8, ptr nonnull %6) #27
  call void @llvm.lifetime.start.p0(i64 8, ptr nonnull %5) #27
  store i64 0, ptr %5, align 8, !tbaa !43
  %18 = call fastcc i32 @obj2gid(i64 noundef %3, ptr noundef %5)
  %19 = load i64, ptr %5, align 8, !tbaa !43
  %.not.i9 = icmp eq i64 %19, 0
  br i1 %.not.i9, label %obj2gid0.exit10, label %20

20:                                               ; preds = %obj2gid0.exit8
  %21 = tail call i64 @rb_str_resize(i64 noundef %19, i64 noundef 0) #27
  br label %obj2gid0.exit10

obj2gid0.exit10:                                  ; preds = %obj2gid0.exit8, %20
  call void @llvm.lifetime.end.p0(i64 8, ptr nonnull %5) #27
  %22 = tail call i32 @setresgid(i32 noundef %10, i32 noundef %14, i32 noundef %18) #27
  %.not = icmp eq i32 %22, 0
  br i1 %.not, label %26, label %23

23:                                               ; preds = %obj2gid0.exit10
  %24 = tail call ptr @rb_errno_ptr() #27
  %25 = load i32, ptr %24, align 4, !tbaa !60
  tail call void @rb_syserr_fail(i32 noundef %25, ptr noundef null) #29
  unreachable

26:                                               ; preds = %obj2gid0.exit10
  ret i64 4
}